target datalayout = "e-m:e-p270:32:32-p271:32:32-p272:64:64-i64:64-i128:128-f80:128-n8:16:32:64-S128"
target triple = "x86_64-pc-linux-gnu"

%struct.ident_t = type { i32, i32, i32, i32, ptr }
%"class.ncnn::Mat" = type { ptr, ptr, i64, i32, ptr, i32, i32, i32, i32, i32, i64 }
%"class.ncnn::Option" = type { i8, i32, ptr, ptr, i32, i8, i8, i8, i8, i8, i8, i8, i8, i8, i8, i8, i8, i8, i8, i8, i8, i8, i8, i8, i8, i32, i8, i8, i8, i8, i8, i8, i8, i8, i8, i8, i8, i8 }

@2 = private unnamed_addr constant %struct.ident_t { i32 0, i32 2, i32 0, i32 22, ptr @0 }, align 8

; Function Attrs: alwaysinline mustprogress nounwind uwtable
define linkonce_odr hidden noundef ptr @_ZNK4ncnn3MatcvPKT_IfEEv(ptr noundef nonnull align 8 dereferenceable(72) %0) #4 comdat align 2 {
  %2 = alloca ptr, align 8
  store ptr %0, ptr %2, align 8, !tbaa !67
  %3 = load ptr, ptr %2, align 8
  %4 = getelementptr inbounds nuw %"class.ncnn::Mat", ptr %3, i32 0, i32 0
  %5 = load ptr, ptr %4, align 8, !tbaa !97
  ret ptr %5
}

; Function Attrs: mustprogress nounwind uwtable
define internal void @_ZN4ncnnL21convdw3x3s2_pack4_sseERKNS_3MatERS0_S2_S2_RKNS_6OptionE(ptr noundef nonnull align 8 dereferenceable(72) %0, ptr noundef nonnull align 8 dereferenceable(72) %1, ptr noundef nonnull align 8 dereferenceable(72) %2, ptr noundef nonnull align 8 dereferenceable(72) %3, ptr noundef nonnull align 8 dereferenceable(64) %4) #3 {
  %6 = alloca ptr, align 8
  %7 = alloca ptr, align 8
  %8 = alloca ptr, align 8
  %9 = alloca ptr, align 8
  %10 = alloca ptr, align 8
  %11 = alloca i32, align 4
  %12 = alloca i32, align 4
  %13 = alloca i32, align 4
  %14 = alloca i32, align 4
  %15 = alloca i32, align 4
  %16 = alloca ptr, align 8
  %17 = call i32 @__kmpc_global_thread_num(ptr @2)
  store ptr %0, ptr %6, align 8, !tbaa !67
  store ptr %1, ptr %7, align 8, !tbaa !67
  store ptr %2, ptr %8, align 8, !tbaa !67
  store ptr %3, ptr %9, align 8, !tbaa !67
  store ptr %4, ptr %10, align 8, !tbaa !11
  call void @llvm.lifetime.start.p0(i64 4, ptr %11) #16
  %18 = load ptr, ptr %6, align 8, !tbaa !67
  %19 = getelementptr inbounds nuw %"class.ncnn::Mat", ptr %18, i32 0, i32 6
  %20 = load i32, ptr %19, align 4, !tbaa !68
  store i32 %20, ptr %11, align 4, !tbaa !52
  call void @llvm.lifetime.start.p0(i64 4, ptr %12) #16
  %21 = load ptr, ptr %7, align 8, !tbaa !67
  %22 = getelementptr inbounds nuw %"class.ncnn::Mat", ptr %21, i32 0, i32 6
  %23 = load i32, ptr %22, align 4, !tbaa !68
  store i32 %23, ptr %12, align 4, !tbaa !52
  call void @llvm.lifetime.start.p0(i64 4, ptr %13) #16
  %24 = load ptr, ptr %7, align 8, !tbaa !67
  %25 = getelementptr inbounds nuw %"class.ncnn::Mat", ptr %24, i32 0, i32 7
  %26 = load i32, ptr %25, align 8, !tbaa !69
  store i32 %26, ptr %13, align 4, !tbaa !52
  call void @llvm.lifetime.start.p0(i64 4, ptr %14) #16
  %27 = load ptr, ptr %6, align 8, !tbaa !67
  %28 = getelementptr inbounds nuw %"class.ncnn::Mat", ptr %27, i32 0, i32 9
  %29 = load i32, ptr %28, align 8, !tbaa !70
  store i32 %29, ptr %14, align 4, !tbaa !52
  call void @llvm.lifetime.start.p0(i64 4, ptr %15) #16
  %30 = load i32, ptr %11, align 4, !tbaa !52
  %31 = load i32, ptr %12, align 4, !tbaa !52
  %32 = mul nsw i32 2, %31
  %33 = sub nsw i32 %30, %32
  %34 = load i32, ptr %11, align 4, !tbaa !52
  %35 = add nsw i32 %33, %34
  %36 = mul nsw i32 %35, 4
  store i32 %36, ptr %15, align 4, !tbaa !52
  call void @llvm.lifetime.start.p0(i64 8, ptr %16) #16
  %37 = load ptr, ptr %9, align 8, !tbaa !67
  %38 = call noundef ptr @_ZNK4ncnn3MatcvPKT_IfEEv(ptr noundef nonnull align 8 dereferenceable(72) %37)
  store ptr %38, ptr %16, align 8, !tbaa !122
  %39 = load ptr, ptr %10, align 8, !tbaa !11
  %40 = getelementptr inbounds nuw %"class.ncnn::Option", ptr %39, i32 0, i32 1
  %41 = load i32, ptr %40, align 4, !tbaa !85
  call void @__kmpc_push_num_threads(ptr @2, i32 %17, i32 %41)
  %42 = load ptr, ptr %7, align 8, !tbaa !67
  %43 = load ptr, ptr %8, align 8, !tbaa !67
  %44 = load ptr, ptr %6, align 8, !tbaa !67
  call void (ptr, i32, ptr, ...) @__kmpc_fork_call(ptr @2, i32 8, ptr @_ZN4ncnnL21convdw3x3s2_pack4_sseERKNS_3MatERS0_S2_S2_RKNS_6OptionE.omp_outlined, ptr %14, ptr %42, ptr %16, ptr %43, ptr %44, ptr %13, ptr %12, ptr %15)
  call void @llvm.lifetime.end.p0(i64 8, ptr %16) #16
  call void @llvm.lifetime.end.p0(i64 4, ptr %15) #16
  call void @llvm.lifetime.end.p0(i64 4, ptr %14) #16
  call void @llvm.lifetime.end.p0(i64 4, ptr %13) #16
  call void @llvm.lifetime.end.p0(i64 4, ptr %12) #16
  call void @llvm.lifetime.end.p0(i64 4, ptr %11) #16
  ret void
}